target datalayout = "e-m:e-p270:32:32-p271:32:32-p272:64:64-i64:64-i128:128-f80:128-n8:16:32:64-S128"
target triple = "x86_64-pc-linux-gnu"

%struct.rb_data_type_struct = type { ptr, %struct.anon, ptr, ptr, i64 }
%struct.anon = type { ptr, ptr, ptr, ptr, [1 x ptr] }
%struct.RTypedData = type { %struct.RBasic, ptr, i64, ptr }
%struct.RBasic = type { i64, i64 }

@cOCSPBasicRes = internal global i64 0, align 8
@rb_eRuntimeError = external global i64, align 8
@ossl_ocsp_basicresp_type = internal constant %struct.rb_data_type_struct { ptr @.str.76, %struct.anon { ptr null, ptr @ossl_ocsp_basicresp_free, ptr null, ptr null, [1 x ptr] zeroinitializer }, ptr null, ptr null, i64 33 }, align 8
@.str.75 = private unnamed_addr constant [29 x i8] c"Response wasn't initialized!\00", align 1
@ossl_ocsp_response_type = internal constant %struct.rb_data_type_struct { ptr @.str.83, %struct.anon { ptr null, ptr @ossl_ocsp_response_free, ptr null, ptr null, [1 x ptr] zeroinitializer }, ptr null, ptr null, i64 33 }, align 8

; Function Attrs: nounwind sspstrong uwtable
define internal i64 @ossl_ocspres_get_basic(i64 noundef %0) #0 {
  %2 = alloca i64, align 8
  %3 = alloca i64, align 8
  %4 = alloca ptr, align 8
  %5 = alloca ptr, align 8
  %6 = alloca i64, align 8
  %7 = alloca i32, align 4
  store i64 %0, ptr %3, align 8, !tbaa !6
  call void @llvm.lifetime.start.p0(i64 8, ptr %4) #15
  call void @llvm.lifetime.start.p0(i64 8, ptr %5) #15
  call void @llvm.lifetime.start.p0(i64 8, ptr %6) #15
  br label %8

8:                                                ; preds = %1
  %9 = load i64, ptr %3, align 8, !tbaa !6
  %10 = call ptr @rb_check_typeddata(i64 noundef %9, ptr noundef @ossl_ocsp_response_type)
  store ptr %10, ptr %4, align 8, !tbaa !41
  %11 = load ptr, ptr %4, align 8, !tbaa !41
  %12 = icmp ne ptr %11, null
  br i1 %12, label %15, label %13

13:                                               ; preds = %8
  %14 = load i64, ptr @rb_eRuntimeError, align 8, !tbaa !6
  call void (i64, ptr, ...) @ossl_raise(i64 noundef %14, ptr noundef @.str.75) #16
  unreachable

15:                                               ; preds = %8
  br label %16

16:                                               ; preds = %15
  br label %17

17:                                               ; preds = %16
  %18 = load i64, ptr @cOCSPBasicRes, align 8, !tbaa !6
  %19 = call i64 @rb_data_typed_object_wrap(i64 noundef %18, ptr noundef null, ptr noundef @ossl_ocsp_basicresp_type)
  store i64 %19, ptr %6, align 8, !tbaa !6
  %20 = load ptr, ptr %4, align 8, !tbaa !41
  %21 = call ptr @OCSP_response_get1_basic(ptr noundef %20)
  store ptr %21, ptr %5, align 8, !tbaa !23
  %22 = icmp ne ptr %21, null
  br i1 %22, label %24, label %23

23:                                               ; preds = %17
  store i64 4, ptr %2, align 8
  store i32 1, ptr %7, align 4
  br label %38

24:                                               ; preds = %17
  br label %25

25:                                               ; preds = %24
  %26 = load ptr, ptr %5, align 8, !tbaa !23
  %27 = icmp ne ptr %26, null
  br i1 %27, label %30, label %28

28:                                               ; preds = %25
  %29 = load i64, ptr @rb_eRuntimeError, align 8, !tbaa !6
  call void (i64, ptr, ...) @ossl_raise(i64 noundef %29, ptr noundef @.str.75) #16
  unreachable

30:                                               ; preds = %25
  %31 = load ptr, ptr %5, align 8, !tbaa !23
  %32 = load i64, ptr %6, align 8, !tbaa !6
  %33 = inttoptr i64 %32 to ptr
  %34 = getelementptr inbounds nuw %struct.RTypedData, ptr %33, i32 0, i32 3
  store ptr %31, ptr %34, align 8, !tbaa !13
  br label %35

35:                                               ; preds = %30
  br label %36

36:                                               ; preds = %35
  %37 = load i64, ptr %6, align 8, !tbaa !6
  store i64 %37, ptr %2, align 8
  store i32 1, ptr %7, align 4
  br label %38

38:                                               ; preds = %36, %23
  call void @llvm.lifetime.end.p0(i64 8, ptr %6) #15
  call void @llvm.lifetime.end.p0(i64 8, ptr %5) #15
  call void @llvm.lifetime.end.p0(i64 8, ptr %4) #15
  %39 = load i64, ptr %2, align 8
  ret i64 %39
}