; Function Attrs: nounwind sspstrong uwtable
define internal i64 @ossl_ocspres_get_basic(i64 noundef %0) #0 {
  %2 = tail call ptr @rb_check_typeddata(i64 noundef %0, ptr noundef nonnull @ossl_ocsp_response_type) #5
  %.not = icmp eq ptr %2, null
  br i1 %.not, label %3, label %5

3:                                                ; preds = %1
  %4 = load i64, ptr @rb_eRuntimeError, align 8, !tbaa !6
  tail call void (i64, ptr, ...) @ossl_raise(i64 noundef %4, ptr noundef nonnull @.str.75) #6
  unreachable

5:                                                ; preds = %1
  %6 = load i64, ptr @cOCSPBasicRes, align 8, !tbaa !6
  %7 = tail call i64 @rb_data_typed_object_wrap(i64 noundef %6, ptr noundef null, ptr noundef nonnull @ossl_ocsp_basicresp_type) #5
  %8 = tail call ptr @OCSP_response_get1_basic(ptr noundef nonnull %2) #5
  %.not9 = icmp eq ptr %8, null
  br i1 %.not9, label %12, label %9

9:                                                ; preds = %5
  %10 = inttoptr i64 %7 to ptr
  %11 = getelementptr inbounds nuw i8, ptr %10, i64 32
  store ptr %8, ptr %11, align 8, !tbaa !10
  br label %12

12:                                               ; preds = %5, %9
  %.0 = phi i64 [ %7, %9 ], [ 4, %5 ]
  ret i64 %.0
}